Certificate:
    Data:
        Version: 3 (0x2)
        Serial Number:
            0f:f9:ba:d8:bf:8f:29:59:4b:28:a3:0a:0a:25:38:c5
        Signature Algorithm: sha256WithRSAEncryption
        Issuer: C=BE, ST=West-Flanders, L=Kortrijk, O=Smeddeu Corporation, OU=IT, CN=smeddeu/emailAddress=desmet_t@hotmail.com
        Validity
            Not Before: Apr 22 15:44:31 2019 GMT
            Not After : Apr 19 15:44:31 2029 GMT
        Subject: C=BE, ST=West-Flanders, L=Kortrijk, O=Smeddeu Corporation, OU=IT, CN=smeddeuclient/emailAddress=desmet_t@hotmail.com
        Subject Public Key Info:
            Public Key Algorithm: rsaEncryption
                RSA Public-Key: (2048 bit)
                Modulus:
                    00:d0:af:08:6d:f6:8a:cb:80:42:9a:f1:1b:e9:c1:
                    6d:24:70:5d:73:38:3d:28:69:bd:3e:f3:b6:5c:00:
                    78:7d:9c:fd:40:16:2f:f1:60:99:69:3d:6c:2c:0a:
                    47:c5:9c:e3:b4:88:5c:d0:4c:06:ad:e8:6a:b2:b9:
                    7b:75:8e:d4:c4:59:52:48:25:ea:59:06:ed:41:0d:
                    1d:9c:a6:b2:18:49:50:c7:9e:fb:9b:20:df:fb:d2:
                    ca:a7:00:80:b9:bc:f1:5c:f4:b2:78:8e:b3:7d:ff:
                    72:a6:8a:a3:af:ed:9e:e9:30:1d:21:64:1d:23:08:
                    cd:96:35:42:f8:f8:b2:9c:61:51:98:64:63:d9:d8:
                    ec:d9:0e:4d:0e:ef:d4:6f:7b:69:10:51:4c:5a:7a:
                    97:4a:f8:85:c3:f6:ff:c3:df:e6:a4:ed:fa:16:04:
                    44:a1:96:4f:e1:37:7a:be:98:d7:af:62:61:db:73:
                    5e:71:99:87:2b:bd:2c:41:f4:35:8a:de:0b:99:33:
                    92:64:81:2f:94:f3:5a:8c:c1:11:28:c5:83:1e:80:
                    f2:60:c4:0b:2b:92:2c:66:69:4a:cf:2e:74:e1:89:
                    b3:b2:0f:ef:7d:18:a6:7b:6f:a2:17:21:f2:9d:4b:
                    97:29:37:64:c5:6e:0a:e1:db:60:c3:f7:7a:86:d4:
                    0c:d3
                Exponent: 65537 (0x10001)
        X509v3 extensions:
            X509v3 Basic Constraints: 
                CA:FALSE
            X509v3 Subject Key Identifier: 
                6B:78:A3:EC:6A:80:10:B0:BE:3D:F5:F7:F8:DF:7D:D0:98:C4:3A:56
            X509v3 Authority Key Identifier: 
                keyid:A7:11:FE:E5:6A:6E:AC:A3:89:1C:A0:FD:8F:9D:A3:CA:DA:2C:A1:B9
                DirName:/C=BE/ST=West-Flanders/L=Kortrijk/O=Smeddeu Corporation/OU=IT/CN=smeddeu/emailAddress=desmet_t@hotmail.com
                serial:0C:A2:EE:A2:FA:85:7A:BB:6C:B6:87:DB:36:08:10:C7:31:7D:2B:E4

            X509v3 Extended Key Usage: 
                TLS Web Client Authentication
            X509v3 Key Usage: 
                Digital Signature
    Signature Algorithm: sha256WithRSAEncryption
         8c:c2:70:27:40:c9:4e:dd:ed:f8:50:d6:17:86:30:2c:5a:06:
         31:56:9e:bb:a8:4d:70:f5:3a:05:44:4e:e0:06:95:40:37:11:
         16:5b:0e:52:70:b2:cd:85:c3:e8:33:0b:c7:c4:2c:8a:d6:5e:
         18:3d:77:99:30:b3:1c:0b:d0:9c:fe:9f:52:b2:3d:8b:8b:87:
         d1:be:a4:d7:63:c6:7f:29:f6:8c:d5:ee:02:1f:67:5b:e5:c4:
         5e:1f:ac:6b:7d:d4:c4:a5:c0:80:3e:a7:87:1c:f2:60:6d:84:
         e7:2e:c9:11:19:26:fb:e9:4e:68:34:54:86:54:76:06:3b:e2:
         f6:16:49:4e:51:1e:e8:2e:d5:87:25:57:cf:fc:40:fa:8b:f2:
         bd:1e:48:c7:d5:8c:d0:08:5d:71:53:c7:16:c7:9d:10:6a:30:
         b5:f2:5f:a7:51:1c:06:ef:5d:d6:a7:4f:4e:ba:9f:b5:89:a8:
         20:77:e2:54:ec:0a:89:a9:2e:0d:db:2d:4b:52:0a:78:f8:c7:
         86:f9:5e:b2:9d:8b:fa:46:71:aa:f6:f1:3b:5a:68:6c:a5:69:
         be:43:ea:5f:9b:d7:2a:bc:7a:52:00:69:60:9d:18:01:11:35:
         4f:d5:e3:19:59:fa:e5:dc:1f:79:f7:87:c6:1d:89:47:e8:ea:
         2c:f4:05:5d
-----BEGIN CERTIFICATE-----
MIIE9TCCA92gAwIBAgIQD/m62L+PKVlLKKMKCiU4xTANBgkqhkiG9w0BAQsFADCB
mjELMAkGA1UEBhMCQkUxFjAUBgNVBAgMDVdlc3QtRmxhbmRlcnMxETAPBgNVBAcM
CEtvcnRyaWprMRwwGgYDVQQKDBNTbWVkZGV1IENvcnBvcmF0aW9uMQswCQYDVQQL
DAJJVDEQMA4GA1UEAwwHc21lZGRldTEjMCEGCSqGSIb3DQEJARYUZGVzbWV0X3RA
aG90bWFpbC5jb20wHhcNMTkwNDIyMTU0NDMxWhcNMjkwNDE5MTU0NDMxWjCBoDEL
MAkGA1UEBhMCQkUxFjAUBgNVBAgMDVdlc3QtRmxhbmRlcnMxETAPBgNVBAcMCEtv
cnRyaWprMRwwGgYDVQQKDBNTbWVkZGV1IENvcnBvcmF0aW9uMQswCQYDVQQLDAJJ
VDEWMBQGA1UEAwwNc21lZGRldWNsaWVudDEjMCEGCSqGSIb3DQEJARYUZGVzbWV0
X3RAaG90bWFpbC5jb20wggEiMA0GCSqGSIb3DQEBAQUAA4IBDwAwggEKAoIBAQDQ
rwht9orLgEKa8RvpwW0kcF1zOD0oab0+87ZcAHh9nP1AFi/xYJlpPWwsCkfFnOO0
iFzQTAat6GqyuXt1jtTEWVJIJepZBu1BDR2cprIYSVDHnvubIN/70sqnAIC5vPFc
9LJ4jrN9/3KmiqOv7Z7pMB0hZB0jCM2WNUL4+LKcYVGYZGPZ2OzZDk0O79Rve2kQ
UUxaepdK+IXD9v/D3+ak7foWBEShlk/hN3q+mNevYmHbc15xmYcrvSxB9DWK3guZ
M5JkgS+U81qMwREoxYMegPJgxAsrkixmaUrPLnThibOyD+99GKZ7b6IXIfKdS5cp
N2TFbgrh22DD93qG1AzTAgMBAAGjggEtMIIBKTAJBgNVHRMEAjAAMB0GA1UdDgQW
BBRreKPsaoAQsL499ff4333QmMQ6VjCB2gYDVR0jBIHSMIHPgBSnEf7lam6so4kc
oP2PnaPK2iyhuaGBoKSBnTCBmjELMAkGA1UEBhMCQkUxFjAUBgNVBAgMDVdlc3Qt
RmxhbmRlcnMxETAPBgNVBAcMCEtvcnRyaWprMRwwGgYDVQQKDBNTbWVkZGV1IENv
cnBvcmF0aW9uMQswCQYDVQQLDAJJVDEQMA4GA1UEAwwHc21lZGRldTEjMCEGCSqG
SIb3DQEJARYUZGVzbWV0X3RAaG90bWFpbC5jb22CFAyi7qL6hXq7bLaH2zYIEMcx
fSvkMBMGA1UdJQQMMAoGCCsGAQUFBwMCMAsGA1UdDwQEAwIHgDANBgkqhkiG9w0B
AQsFAAOCAQEAjMJwJ0DJTt3t+FDWF4YwLFoGMVaeu6hNcPU6BURO4AaVQDcRFlsO
UnCyzYXD6DMLx8QsitZeGD13mTCzHAvQnP6fUrI9i4uH0b6k12PGfyn2jNXuAh9n
W+XEXh+sa33UxKXAgD6nhxzyYG2E5y7JERkm++lOaDRUhlR2Bjvi9hZJTlEe6C7V
hyVXz/xA+ovyvR5Ix9WM0AhdcVPHFsedEGowtfJfp1EcBu9d1qdPTrqftYmoIHfi
VOwKiakuDdstS1IKePjHhvlesp2L+kZxqvbxO1pobKVpvkPqX5vXKrx6UgBpYJ0Y
ARE1T9XjGVn65dwfefeHxh2JR+jqLPQFXQ==
-----END CERTIFICATE-----
